target datalayout = "e-m:e-p270:32:32-p271:32:32-p272:64:64-i64:64-i128:128-f80:128-n8:16:32:64-S128"
target triple = "x86_64-pc-linux-gnu"

%struct.TT_GraphicsState_ = type { i16, i16, i16, %struct.FT_UnitVector_, %struct.FT_UnitVector_, %struct.FT_UnitVector_, i64, i64, i32, i8, i64, i64, i64, i16, i16, i8, i8, i32, i16, i16, i16 }
%struct.FT_UnitVector_ = type { i16, i16 }
%struct.TT_GlyphZoneRec_ = type { ptr, i16, i16, i16, i16, ptr, ptr, ptr, ptr, ptr, i16 }
%struct.FT_Size_Metrics_ = type { i16, i16, i64, i64, i64, i64, i64, i64 }
%struct.TT_Size_Metrics_ = type { i64, i64, i16, i64, i64, [4 x i64], i8, i8, i8 }
%struct.TT_CodeRange_ = type { ptr, i64 }
%struct.TT_ExecContextRec_ = type { ptr, ptr, ptr, i32, i64, i64, ptr, i64, i64, %struct.TT_GlyphZoneRec_, %struct.TT_GlyphZoneRec_, %struct.TT_GlyphZoneRec_, %struct.TT_GlyphZoneRec_, %struct.TT_GlyphZoneRec_, i64, %struct.FT_Size_Metrics_, %struct.TT_Size_Metrics_, %struct.TT_GraphicsState_, i32, i32, ptr, i64, i64, i8, i32, i8, i64, ptr, i64, ptr, i32, ptr, i32, i32, ptr, i32, i32, ptr, i32, i32, i32, i32, ptr, i16, i16, [3 x %struct.TT_CodeRange_], i16, ptr, i16, ptr, i64, i64, i64, i8, %struct.TT_GraphicsState_, i8, i8, i64, ptr, ptr, ptr, ptr, ptr, ptr, ptr, ptr, ptr, ptr, i8, i8, i8, i8, i8, i8, i8, i64, i64, i64, i64 }

; Function Attrs: nounwind uwtable
define internal zeroext i8 @SkipCode(ptr noundef %0) #0 {
  %2 = alloca i8, align 1
  %3 = alloca ptr, align 8
  store ptr %0, ptr %3, align 8
  %4 = load ptr, ptr %3, align 8
  %5 = getelementptr inbounds %struct.TT_ExecContextRec_, ptr %4, i32 0, i32 24
  %6 = load i32, ptr %5, align 4
  %7 = sext i32 %6 to i64
  %8 = load ptr, ptr %3, align 8
  %9 = getelementptr inbounds %struct.TT_ExecContextRec_, ptr %8, i32 0, i32 21
  %10 = load i64, ptr %9, align 8
  %11 = add nsw i64 %10, %7
  store i64 %11, ptr %9, align 8
  %12 = load ptr, ptr %3, align 8
  %13 = getelementptr inbounds %struct.TT_ExecContextRec_, ptr %12, i32 0, i32 21
  %14 = load i64, ptr %13, align 8
  %15 = load ptr, ptr %3, align 8
  %16 = getelementptr inbounds %struct.TT_ExecContextRec_, ptr %15, i32 0, i32 22
  %17 = load i64, ptr %16, align 8
  %18 = icmp slt i64 %14, %17
  br i1 %18, label %19, label %86

19:                                               ; preds = %1
  %20 = load ptr, ptr %3, align 8
  %21 = getelementptr inbounds %struct.TT_ExecContextRec_, ptr %20, i32 0, i32 20
  %22 = load ptr, ptr %21, align 8
  %23 = load ptr, ptr %3, align 8
  %24 = getelementptr inbounds %struct.TT_ExecContextRec_, ptr %23, i32 0, i32 21
  %25 = load i64, ptr %24, align 8
  %26 = getelementptr inbounds i8, ptr %22, i64 %25
  %27 = load i8, ptr %26, align 1
  %28 = load ptr, ptr %3, align 8
  %29 = getelementptr inbounds %struct.TT_ExecContextRec_, ptr %28, i32 0, i32 23
  store i8 %27, ptr %29, align 8
  %30 = load ptr, ptr %3, align 8
  %31 = getelementptr inbounds %struct.TT_ExecContextRec_, ptr %30, i32 0, i32 23
  %32 = load i8, ptr %31, align 8
  %33 = zext i8 %32 to i64
  %34 = getelementptr inbounds [256 x i8], ptr @opcode_length, i64 0, i64 %33
  %35 = load i8, ptr %34, align 1
  %36 = sext i8 %35 to i32
  %37 = load ptr, ptr %3, align 8
  %38 = getelementptr inbounds %struct.TT_ExecContextRec_, ptr %37, i32 0, i32 24
  store i32 %36, ptr %38, align 4
  %39 = load ptr, ptr %3, align 8
  %40 = getelementptr inbounds %struct.TT_ExecContextRec_, ptr %39, i32 0, i32 24
  %41 = load i32, ptr %40, align 4
  %42 = icmp slt i32 %41, 0
  br i1 %42, label %43, label %71

43:                                               ; preds = %19
  %44 = load ptr, ptr %3, align 8
  %45 = getelementptr inbounds %struct.TT_ExecContextRec_, ptr %44, i32 0, i32 21
  %46 = load i64, ptr %45, align 8
  %47 = add nsw i64 %46, 1
  %48 = load ptr, ptr %3, align 8
  %49 = getelementptr inbounds %struct.TT_ExecContextRec_, ptr %48, i32 0, i32 22
  %50 = load i64, ptr %49, align 8
  %51 = icmp sge i64 %47, %50
  br i1 %51, label %52, label %53

52:                                               ; preds = %43
  br label %87

53:                                               ; preds = %43
  %54 = load ptr, ptr %3, align 8
  %55 = getelementptr inbounds %struct.TT_ExecContextRec_, ptr %54, i32 0, i32 24
  %56 = load i32, ptr %55, align 4
  %57 = load ptr, ptr %3, align 8
  %58 = getelementptr inbounds %struct.TT_ExecContextRec_, ptr %57, i32 0, i32 20
  %59 = load ptr, ptr %58, align 8
  %60 = load ptr, ptr %3, align 8
  %61 = getelementptr inbounds %struct.TT_ExecContextRec_, ptr %60, i32 0, i32 21
  %62 = load i64, ptr %61, align 8
  %63 = add nsw i64 %62, 1
  %64 = getelementptr inbounds i8, ptr %59, i64 %63
  %65 = load i8, ptr %64, align 1
  %66 = zext i8 %65 to i32
  %67 = mul nsw i32 %56, %66
  %68 = sub nsw i32 2, %67
  %69 = load ptr, ptr %3, align 8
  %70 = getelementptr inbounds %struct.TT_ExecContextRec_, ptr %69, i32 0, i32 24
  store i32 %68, ptr %70, align 4
  br label %71

71:                                               ; preds = %53, %19
  %72 = load ptr, ptr %3, align 8
  %73 = getelementptr inbounds %struct.TT_ExecContextRec_, ptr %72, i32 0, i32 21
  %74 = load i64, ptr %73, align 8
  %75 = load ptr, ptr %3, align 8
  %76 = getelementptr inbounds %struct.TT_ExecContextRec_, ptr %75, i32 0, i32 24
  %77 = load i32, ptr %76, align 4
  %78 = sext i32 %77 to i64
  %79 = add nsw i64 %74, %78
  %80 = load ptr, ptr %3, align 8
  %81 = getelementptr inbounds %struct.TT_ExecContextRec_, ptr %80, i32 0, i32 22
  %82 = load i64, ptr %81, align 8
  %83 = icmp sle i64 %79, %82
  br i1 %83, label %84, label %85

84:                                               ; preds = %71
  store i8 0, ptr %2, align 1
  br label %90

85:                                               ; preds = %71
  br label %86

86:                                               ; preds = %85, %1
  br label %87

87:                                               ; preds = %86, %52
  %88 = load ptr, ptr %3, align 8
  %89 = getelementptr inbounds %struct.TT_ExecContextRec_, ptr %88, i32 0, i32 3
  store i32 131, ptr %89, align 8
  store i8 1, ptr %2, align 1
  br label %90

90:                                               ; preds = %87, %84
  %91 = load i8, ptr %2, align 1
  ret i8 %91
}

; Function Attrs: nounwind uwtable
define internal void @Ins_IF(ptr noundef %0, ptr noundef %1) #0 {
  %3 = alloca ptr, align 8
  %4 = alloca ptr, align 8
  %5 = alloca i32, align 4
  %6 = alloca i8, align 1
  store ptr %0, ptr %3, align 8
  store ptr %1, ptr %4, align 8
  %7 = load ptr, ptr %4, align 8
  %8 = getelementptr inbounds i64, ptr %7, i64 0
  %9 = load i64, ptr %8, align 8
  %10 = icmp ne i64 %9, 0
  br i1 %10, label %11, label %12

11:                                               ; preds = %2
  br label %48

12:                                               ; preds = %2
  store i32 1, ptr %5, align 4
  store i8 0, ptr %6, align 1
  br label %13

13:                                               ; preds = %44, %12
  %14 = load ptr, ptr %3, align 8
  %15 = call zeroext i8 @SkipCode(ptr noundef %14)
  %16 = zext i8 %15 to i32
  %17 = icmp eq i32 %16, 1
  br i1 %17, label %18, label %19

18:                                               ; preds = %13
  br label %48

19:                                               ; preds = %13
  %20 = load ptr, ptr %3, align 8
  %21 = getelementptr inbounds %struct.TT_ExecContextRec_, ptr %20, i32 0, i32 23
  %22 = load i8, ptr %21, align 8
  %23 = zext i8 %22 to i32
  switch i32 %23, label %43 [
    i32 88, label %24
    i32 27, label %27
    i32 89, label %34
  ]

24:                                               ; preds = %19
  %25 = load i32, ptr %5, align 4
  %26 = add nsw i32 %25, 1
  store i32 %26, ptr %5, align 4
  br label %43

27:                                               ; preds = %19
  %28 = load i32, ptr %5, align 4
  %29 = icmp eq i32 %28, 1
  %30 = zext i1 %29 to i32
  %31 = icmp ne i32 %30, 0
  %32 = zext i1 %31 to i32
  %33 = trunc i32 %32 to i8
  store i8 %33, ptr %6, align 1
  br label %43

34:                                               ; preds = %19
  %35 = load i32, ptr %5, align 4
  %36 = add nsw i32 %35, -1
  store i32 %36, ptr %5, align 4
  %37 = load i32, ptr %5, align 4
  %38 = icmp eq i32 %37, 0
  %39 = zext i1 %38 to i32
  %40 = icmp ne i32 %39, 0
  %41 = zext i1 %40 to i32
  %42 = trunc i32 %41 to i8
  store i8 %42, ptr %6, align 1
  br label %43

43:                                               ; preds = %34, %27, %24, %19
  br label %44

44:                                               ; preds = %43
  %45 = load i8, ptr %6, align 1
  %46 = zext i8 %45 to i32
  %47 = icmp eq i32 %46, 0
  br i1 %47, label %13, label %48, !llvm.loop !27

48:                                               ; preds = %44, %18, %11
  ret void
}