; Function Attrs: nofree norecurse nosync nounwind memory(read, argmem: readwrite, inaccessiblemem: none) uwtable
define internal fastcc void @Ins_IF(ptr nocapture noundef %0, i64 %.0.val) unnamed_addr #7 {
  %.not = icmp eq i64 %.0.val, 0
  br i1 %.not, label %.preheader, label %.loopexit

.preheader:                                       ; preds = %1
  %2 = getelementptr inbounds i8, ptr %0, i64 668
  %3 = getelementptr inbounds i8, ptr %0, i64 648
  %4 = getelementptr inbounds i8, ptr %0, i64 656
  %5 = load i64, ptr %4, align 8
  %.promoted = load i32, ptr %2, align 4
  %.promoted3 = load i64, ptr %3, align 8
  %6 = getelementptr inbounds i8, ptr %0, i64 640
  %7 = getelementptr inbounds i8, ptr %0, i64 664
  br label %.outer.outer

.outer.outer:                                     ; preds = %.outer.outer.backedge, %.preheader
  %.ph.ph = phi i64 [ %.promoted3, %.preheader ], [ %13, %.outer.outer.backedge ]
  %.ph4.ph = phi i32 [ %.promoted, %.preheader ], [ %34, %.outer.outer.backedge ]
  %.07.ph.ph = phi i32 [ 1, %.preheader ], [ %.07.ph.ph.be, %.outer.outer.backedge ]
  %8 = icmp eq i32 %.07.ph.ph, 1
  br label %.outer

.outer:                                           ; preds = %38, %.outer.outer
  %.ph = phi i64 [ %.ph.ph, %.outer.outer ], [ %13, %38 ]
  %.ph4 = phi i32 [ %.ph4.ph, %.outer.outer ], [ %34, %38 ]
  br label %9

9:                                                ; preds = %.outer, %41
  %10 = phi i64 [ %13, %41 ], [ %.ph, %.outer ]
  %11 = phi i32 [ %34, %41 ], [ %.ph4, %.outer ]
  %12 = sext i32 %11 to i64
  %13 = add nsw i64 %10, %12
  store i64 %13, ptr %3, align 8
  %14 = icmp slt i64 %13, %5
  br i1 %14, label %15, label %SkipCode.exit

15:                                               ; preds = %9
  %16 = load ptr, ptr %6, align 8
  %17 = getelementptr inbounds i8, ptr %16, i64 %13
  %18 = load i8, ptr %17, align 1
  store i8 %18, ptr %7, align 8
  %19 = zext i8 %18 to i64
  %20 = getelementptr inbounds [256 x i8], ptr @opcode_length, i64 0, i64 %19
  %21 = load i8, ptr %20, align 1
  %22 = sext i8 %21 to i32
  store i32 %22, ptr %2, align 4
  %23 = and i8 %18, -2
  %24 = icmp eq i8 %23, 64
  br i1 %24, label %25, label %33

25:                                               ; preds = %15
  %26 = add nsw i64 %13, 1
  %.not.i = icmp slt i64 %26, %5
  br i1 %.not.i, label %27, label %SkipCode.exit

27:                                               ; preds = %25
  %28 = getelementptr inbounds i8, ptr %16, i64 %26
  %29 = load i8, ptr %28, align 1
  %30 = zext i8 %29 to i32
  %31 = mul nsw i32 %30, %22
  %32 = sub nsw i32 2, %31
  store i32 %32, ptr %2, align 4
  br label %33

33:                                               ; preds = %27, %15
  %34 = phi i32 [ %32, %27 ], [ %22, %15 ]
  %35 = sext i32 %34 to i64
  %36 = add nsw i64 %13, %35
  %.not23.i = icmp sgt i64 %36, %5
  br i1 %.not23.i, label %SkipCode.exit, label %38

SkipCode.exit:                                    ; preds = %9, %25, %33
  %37 = getelementptr inbounds i8, ptr %0, i64 24
  store i32 131, ptr %37, align 8
  br label %.loopexit

38:                                               ; preds = %33
  switch i8 %18, label %.outer [
    i8 88, label %39
    i8 27, label %41
    i8 89, label %42
  ], !llvm.loop !34

39:                                               ; preds = %38
  %40 = add nsw i32 %.07.ph.ph, 1
  br label %.outer.outer.backedge

.outer.outer.backedge:                            ; preds = %39, %42
  %.07.ph.ph.be = phi i32 [ %43, %42 ], [ %40, %39 ]
  br label %.outer.outer, !llvm.loop !34

41:                                               ; preds = %38
  br i1 %8, label %.loopexit, label %9, !llvm.loop !34

42:                                               ; preds = %38
  %43 = add nsw i32 %.07.ph.ph, -1
  %44 = icmp eq i32 %43, 0
  br i1 %44, label %.loopexit, label %.outer.outer.backedge

.loopexit:                                        ; preds = %42, %41, %SkipCode.exit, %1
  ret void
}